target datalayout = "e-m:e-p270:32:32-p271:32:32-p272:64:64-i64:64-i128:128-f80:128-n8:16:32:64-S128"
target triple = "x86_64-pc-linux-gnu"

%struct.rand_meth_st = type { ptr, ptr, ptr, ptr, ptr, ptr }
%struct.st_dynamic_fns = type { ptr, %struct.st_dynamic_MEM_fns }
%struct.st_dynamic_MEM_fns = type { ptr, ptr, ptr }

@padlock_id = internal global ptr @.str, align 8
@padlock_use_rng = internal global i32 0, align 4
@padlock_name = internal global [100 x i8] zeroinitializer, align 16
@.str.1 = private unnamed_addr constant [21 x i8] c"VIA PadLock (%s, %s)\00", align 1
@.str.2 = private unnamed_addr constant [4 x i8] c"RNG\00", align 1
@.str.3 = private unnamed_addr constant [7 x i8] c"no-RNG\00", align 1
@padlock_use_ace = internal global i32 0, align 4
@.str.4 = private unnamed_addr constant [4 x i8] c"ACE\00", align 1
@.str.5 = private unnamed_addr constant [7 x i8] c"no-ACE\00", align 1
@padlock_rand = internal global %struct.rand_meth_st { ptr null, ptr @padlock_rand_bytes, ptr null, ptr null, ptr @padlock_rand_bytes, ptr @padlock_rand_status }, align 8

; Function Attrs: nounwind uwtable
define internal i32 @padlock_available() #0 {
  %1 = alloca i32, align 4
  call void @llvm.lifetime.start.p0(i64 4, ptr %1) #7
  %2 = call i32 @padlock_capability()
  store i32 %2, ptr %1, align 4, !tbaa !20
  %3 = load i32, ptr %1, align 4, !tbaa !20
  %4 = and i32 %3, 192
  %5 = icmp eq i32 %4, 192
  %6 = zext i1 %5 to i32
  store i32 %6, ptr @padlock_use_ace, align 4, !tbaa !20
  %7 = load i32, ptr %1, align 4, !tbaa !20
  %8 = and i32 %7, 12
  %9 = icmp eq i32 %8, 12
  %10 = zext i1 %9 to i32
  store i32 %10, ptr @padlock_use_rng, align 4, !tbaa !20
  %11 = load i32, ptr @padlock_use_ace, align 4, !tbaa !20
  %12 = load i32, ptr @padlock_use_rng, align 4, !tbaa !20
  %13 = add nsw i32 %11, %12
  call void @llvm.lifetime.end.p0(i64 4, ptr %1) #7
  ret i32 %13
}

; Function Attrs: nounwind uwtable
define internal i32 @padlock_bind_helper(ptr noundef %0) #0 {
  %2 = alloca i32, align 4
  %3 = alloca ptr, align 8
  store ptr %0, ptr %3, align 8, !tbaa !7
  %4 = call i32 @padlock_available()
  store i32 0, ptr @padlock_use_rng, align 4, !tbaa !20
  %5 = load i32, ptr @padlock_use_rng, align 4, !tbaa !20
  %6 = icmp ne i32 %5, 0
  %7 = select i1 %6, ptr @.str.2, ptr @.str.3
  %8 = load i32, ptr @padlock_use_ace, align 4, !tbaa !20
  %9 = icmp ne i32 %8, 0
  %10 = select i1 %9, ptr @.str.4, ptr @.str.5
  %11 = call i32 (ptr, i64, ptr, ...) @BIO_snprintf(ptr noundef @padlock_name, i64 noundef 100, ptr noundef @.str.1, ptr noundef %7, ptr noundef %10)
  %12 = load ptr, ptr %3, align 8, !tbaa !7
  %13 = load ptr, ptr @padlock_id, align 8, !tbaa !10
  %14 = call i32 @ENGINE_set_id(ptr noundef %12, ptr noundef %13)
  %15 = icmp ne i32 %14, 0
  br i1 %15, label %16, label %38

16:                                               ; preds = %1
  %17 = load ptr, ptr %3, align 8, !tbaa !7
  %18 = call i32 @ENGINE_set_name(ptr noundef %17, ptr noundef @padlock_name)
  %19 = icmp ne i32 %18, 0
  br i1 %19, label %20, label %38

20:                                               ; preds = %16
  %21 = load ptr, ptr %3, align 8, !tbaa !7
  %22 = call i32 @ENGINE_set_init_function(ptr noundef %21, ptr noundef @padlock_init)
  %23 = icmp ne i32 %22, 0
  br i1 %23, label %24, label %38

24:                                               ; preds = %20
  %25 = load i32, ptr @padlock_use_ace, align 4, !tbaa !20
  %26 = icmp ne i32 %25, 0
  br i1 %26, label %27, label %31

27:                                               ; preds = %24
  %28 = load ptr, ptr %3, align 8, !tbaa !7
  %29 = call i32 @ENGINE_set_ciphers(ptr noundef %28, ptr noundef @padlock_ciphers)
  %30 = icmp ne i32 %29, 0
  br i1 %30, label %31, label %38

31:                                               ; preds = %27, %24
  %32 = load i32, ptr @padlock_use_rng, align 4, !tbaa !20
  %33 = icmp ne i32 %32, 0
  br i1 %33, label %34, label %39

34:                                               ; preds = %31
  %35 = load ptr, ptr %3, align 8, !tbaa !7
  %36 = call i32 @ENGINE_set_RAND(ptr noundef %35, ptr noundef @padlock_rand)
  %37 = icmp ne i32 %36, 0
  br i1 %37, label %39, label %38

38:                                               ; preds = %34, %27, %20, %16, %1
  store i32 0, ptr %2, align 4
  br label %40

39:                                               ; preds = %34, %31
  store i32 1, ptr %2, align 4
  br label %40

40:                                               ; preds = %39, %38
  %41 = load i32, ptr %2, align 4
  ret i32 %41
}

; Function Attrs: nounwind uwtable
define internal i32 @padlock_bind_fn(ptr noundef %0, ptr noundef %1) #0 {
  %3 = alloca i32, align 4
  %4 = alloca ptr, align 8
  %5 = alloca ptr, align 8
  store ptr %0, ptr %4, align 8, !tbaa !7
  store ptr %1, ptr %5, align 8, !tbaa !10
  %6 = load ptr, ptr %5, align 8, !tbaa !10
  %7 = icmp ne ptr %6, null
  br i1 %7, label %8, label %14

8:                                                ; preds = %2
  %9 = load ptr, ptr %5, align 8, !tbaa !10
  %10 = load ptr, ptr @padlock_id, align 8, !tbaa !10
  %11 = call i32 @strcmp(ptr noundef %9, ptr noundef %10) #6
  %12 = icmp ne i32 %11, 0
  br i1 %12, label %13, label %14

13:                                               ; preds = %8
  store i32 0, ptr %3, align 4
  br label %20

14:                                               ; preds = %8, %2
  %15 = load ptr, ptr %4, align 8, !tbaa !7
  %16 = call i32 @padlock_bind_helper(ptr noundef %15)
  %17 = icmp ne i32 %16, 0
  br i1 %17, label %19, label %18

18:                                               ; preds = %14
  store i32 0, ptr %3, align 4
  br label %20

19:                                               ; preds = %14
  store i32 1, ptr %3, align 4
  br label %20

20:                                               ; preds = %19, %18, %13
  %21 = load i32, ptr %3, align 4
  ret i32 %21
}

; Function Attrs: nounwind uwtable
define i32 @bind_engine(ptr noundef %0, ptr noundef %1, ptr noundef %2) #0 {
  %4 = alloca i32, align 4
  %5 = alloca ptr, align 8
  %6 = alloca ptr, align 8
  %7 = alloca ptr, align 8
  store ptr %0, ptr %5, align 8, !tbaa !7
  store ptr %1, ptr %6, align 8, !tbaa !10
  store ptr %2, ptr %7, align 8, !tbaa !12
  %8 = call ptr @ENGINE_get_static_state()
  %9 = load ptr, ptr %7, align 8, !tbaa !12
  %10 = getelementptr inbounds nuw %struct.st_dynamic_fns, ptr %9, i32 0, i32 0
  %11 = load ptr, ptr %10, align 8, !tbaa !14
  %12 = icmp eq ptr %8, %11
  br i1 %12, label %13, label %14

13:                                               ; preds = %3
  br label %29

14:                                               ; preds = %3
  %15 = load ptr, ptr %7, align 8, !tbaa !12
  %16 = getelementptr inbounds nuw %struct.st_dynamic_fns, ptr %15, i32 0, i32 1
  %17 = getelementptr inbounds nuw %struct.st_dynamic_MEM_fns, ptr %16, i32 0, i32 0
  %18 = load ptr, ptr %17, align 8, !tbaa !17
  %19 = load ptr, ptr %7, align 8, !tbaa !12
  %20 = getelementptr inbounds nuw %struct.st_dynamic_fns, ptr %19, i32 0, i32 1
  %21 = getelementptr inbounds nuw %struct.st_dynamic_MEM_fns, ptr %20, i32 0, i32 1
  %22 = load ptr, ptr %21, align 8, !tbaa !18
  %23 = load ptr, ptr %7, align 8, !tbaa !12
  %24 = getelementptr inbounds nuw %struct.st_dynamic_fns, ptr %23, i32 0, i32 1
  %25 = getelementptr inbounds nuw %struct.st_dynamic_MEM_fns, ptr %24, i32 0, i32 2
  %26 = load ptr, ptr %25, align 8, !tbaa !19
  %27 = call i32 @CRYPTO_set_mem_functions(ptr noundef %18, ptr noundef %22, ptr noundef %26)
  %28 = call i32 @OPENSSL_init_crypto(i64 noundef 524288, ptr noundef null)
  br label %29

29:                                               ; preds = %14, %13
  %30 = load ptr, ptr %5, align 8, !tbaa !7
  %31 = load ptr, ptr %6, align 8, !tbaa !10
  %32 = call i32 @padlock_bind_fn(ptr noundef %30, ptr noundef %31)
  %33 = icmp ne i32 %32, 0
  br i1 %33, label %35, label %34

34:                                               ; preds = %29
  store i32 0, ptr %4, align 4
  br label %36

35:                                               ; preds = %29
  store i32 1, ptr %4, align 4
  br label %36

36:                                               ; preds = %35, %34
  %37 = load i32, ptr %4, align 4
  ret i32 %37
}