; Function Attrs: nounwind uwtable
define range(i32 0, 2) i32 @bind_engine(ptr noundef %0, ptr noundef readonly captures(address_is_null) %1, ptr noundef readonly captures(none) %2) local_unnamed_addr #1 {
  %4 = tail call ptr @ENGINE_get_static_state() #10
  %5 = load ptr, ptr %2, align 8, !tbaa !3
  %6 = icmp eq ptr %4, %5
  br i1 %6, label %16, label %7

7:                                                ; preds = %3
  %8 = getelementptr inbounds nuw i8, ptr %2, i64 8
  %9 = load ptr, ptr %8, align 8, !tbaa !9
  %10 = getelementptr inbounds nuw i8, ptr %2, i64 16
  %11 = load ptr, ptr %10, align 8, !tbaa !10
  %12 = getelementptr inbounds nuw i8, ptr %2, i64 24
  %13 = load ptr, ptr %12, align 8, !tbaa !11
  %14 = tail call i32 @CRYPTO_set_mem_functions(ptr noundef %9, ptr noundef %11, ptr noundef %13) #10
  %15 = tail call i32 @OPENSSL_init_crypto(i64 noundef 524288, ptr noundef null) #10
  br label %16

16:                                               ; preds = %3, %7
  %.not.i = icmp eq ptr %1, null
  br i1 %.not.i, label %19, label %17

17:                                               ; preds = %16
  %18 = tail call i32 @strcmp(ptr noundef nonnull readonly dereferenceable(1) %1, ptr noundef nonnull dereferenceable(8) @.str) #11
  %.not4.i = icmp eq i32 %18, 0
  br i1 %.not4.i, label %19, label %padlock_bind_fn.exit

19:                                               ; preds = %17, %16
  %20 = tail call i32 @padlock_capability() #10
  %21 = and i32 %20, 192
  %22 = icmp eq i32 %21, 192
  %23 = zext i1 %22 to i32
  store i32 %23, ptr @padlock_use_ace, align 4, !tbaa !12
  %24 = select i1 %22, ptr @.str.4, ptr @.str.5
  %25 = tail call i32 (ptr, i64, ptr, ...) @BIO_snprintf(ptr noundef nonnull @padlock_name, i64 noundef 100, ptr noundef nonnull @.str.1, ptr noundef nonnull @.str.3, ptr noundef nonnull %24) #10
  %26 = tail call i32 @ENGINE_set_id(ptr noundef %0, ptr noundef nonnull @.str) #10
  %.not5.i.i = icmp eq i32 %26, 0
  br i1 %.not5.i.i, label %35, label %27

27:                                               ; preds = %19
  %28 = tail call i32 @ENGINE_set_name(ptr noundef %0, ptr noundef nonnull @padlock_name) #10
  %.not6.i.i = icmp eq i32 %28, 0
  br i1 %.not6.i.i, label %35, label %29

29:                                               ; preds = %27
  %30 = tail call i32 @ENGINE_set_init_function(ptr noundef %0, ptr noundef nonnull @padlock_init) #10
  %.not7.i.i = icmp eq i32 %30, 0
  br i1 %.not7.i.i, label %35, label %31

31:                                               ; preds = %29
  %32 = load i32, ptr @padlock_use_ace, align 4, !tbaa !12
  %.not8.i.i = icmp eq i32 %32, 0
  br i1 %.not8.i.i, label %padlock_bind_fn.exit, label %33

33:                                               ; preds = %31
  %34 = tail call i32 @ENGINE_set_ciphers(ptr noundef %0, ptr noundef nonnull @padlock_ciphers) #10
  %.not9.i.i = icmp eq i32 %34, 0
  br i1 %.not9.i.i, label %35, label %padlock_bind_fn.exit

35:                                               ; preds = %33, %29, %27, %19
  br label %padlock_bind_fn.exit

padlock_bind_fn.exit:                             ; preds = %31, %33, %35, %17
  %36 = phi i32 [ 0, %17 ], [ 0, %35 ], [ 1, %33 ], [ 1, %31 ]
  ret i32 %36
}